target datalayout = "e-m:e-p270:32:32-p271:32:32-p272:64:64-i64:64-i128:128-f80:128-n8:16:32:64-S128"
target triple = "x86_64-pc-linux-gnu"

%"class.lean::list" = type { ptr }
%"class.lean::list<unsigned int>::cell" = type { %"struct.std::atomic", i32, %"class.lean::list" }
%"struct.std::atomic" = type { %"struct.std::__atomic_base" }
%"struct.std::__atomic_base" = type { i32 }

; Function Attrs: alwaysinline mustprogress nounwind uwtable
define linkonce_odr hidden noundef i32 @_ZNSt13__atomic_baseIjE9fetch_addEjSt12memory_order(ptr noundef nonnull align 4 dereferenceable(4) %0, i32 noundef %1, i32 noundef %2) #6 comdat align 2 {
  %4 = alloca ptr, align 8
  %5 = alloca i32, align 4
  %6 = alloca i32, align 4
  %7 = alloca i32, align 4
  %8 = alloca i32, align 4
  store ptr %0, ptr %4, align 8, !tbaa !23
  store i32 %1, ptr %5, align 4, !tbaa !3
  store i32 %2, ptr %6, align 4, !tbaa !21
  %9 = load ptr, ptr %4, align 8
  %10 = getelementptr inbounds nuw %"struct.std::__atomic_base", ptr %9, i32 0, i32 0
  %11 = load i32, ptr %6, align 4, !tbaa !21
  %12 = load i32, ptr %5, align 4, !tbaa !3
  store i32 %12, ptr %7, align 4, !tbaa !3
  switch i32 %11, label %13 [
    i32 1, label %16
    i32 2, label %16
    i32 3, label %19
    i32 4, label %22
    i32 5, label %25
  ]

13:                                               ; preds = %3
  %14 = load i32, ptr %7, align 4
  %15 = atomicrmw add ptr %10, i32 %14 monotonic, align 4
  store i32 %15, ptr %8, align 4
  br label %28

16:                                               ; preds = %3, %3
  %17 = load i32, ptr %7, align 4
  %18 = atomicrmw add ptr %10, i32 %17 acquire, align 4
  store i32 %18, ptr %8, align 4
  br label %28

19:                                               ; preds = %3
  %20 = load i32, ptr %7, align 4
  %21 = atomicrmw add ptr %10, i32 %20 release, align 4
  store i32 %21, ptr %8, align 4
  br label %28

22:                                               ; preds = %3
  %23 = load i32, ptr %7, align 4
  %24 = atomicrmw add ptr %10, i32 %23 acq_rel, align 4
  store i32 %24, ptr %8, align 4
  br label %28

25:                                               ; preds = %3
  %26 = load i32, ptr %7, align 4
  %27 = atomicrmw add ptr %10, i32 %26 seq_cst, align 4
  store i32 %27, ptr %8, align 4
  br label %28

28:                                               ; preds = %25, %22, %19, %16, %13
  %29 = load i32, ptr %8, align 4, !tbaa !3
  ret i32 %29
}

; Function Attrs: inlinehint mustprogress nounwind uwtable
define linkonce_odr noundef i32 @_ZSt25atomic_fetch_add_explicitIjET_PSt6atomicIS0_ENS2_15difference_typeESt12memory_order(ptr noundef %0, i32 noundef %1, i32 noundef %2) #5 comdat {
  %4 = alloca ptr, align 8
  %5 = alloca i32, align 4
  %6 = alloca i32, align 4
  store ptr %0, ptr %4, align 8, !tbaa !19
  store i32 %1, ptr %5, align 4, !tbaa !3
  store i32 %2, ptr %6, align 4, !tbaa !21
  %7 = load ptr, ptr %4, align 8, !tbaa !19
  %8 = load i32, ptr %5, align 4, !tbaa !3
  %9 = load i32, ptr %6, align 4, !tbaa !21
  %10 = call noundef i32 @_ZNSt13__atomic_baseIjE9fetch_addEjSt12memory_order(ptr noundef nonnull align 4 dereferenceable(4) %7, i32 noundef %8, i32 noundef %9) #9
  ret i32 %10
}

; Function Attrs: alwaysinline mustprogress nounwind uwtable
define linkonce_odr hidden noundef i32 @_ZNSt13__atomic_baseIjE9fetch_subEjSt12memory_order(ptr noundef nonnull align 4 dereferenceable(4) %0, i32 noundef %1, i32 noundef %2) #6 comdat align 2 {
  %4 = alloca ptr, align 8
  %5 = alloca i32, align 4
  %6 = alloca i32, align 4
  %7 = alloca i32, align 4
  %8 = alloca i32, align 4
  store ptr %0, ptr %4, align 8, !tbaa !23
  store i32 %1, ptr %5, align 4, !tbaa !3
  store i32 %2, ptr %6, align 4, !tbaa !21
  %9 = load ptr, ptr %4, align 8
  %10 = getelementptr inbounds nuw %"struct.std::__atomic_base", ptr %9, i32 0, i32 0
  %11 = load i32, ptr %6, align 4, !tbaa !21
  %12 = load i32, ptr %5, align 4, !tbaa !3
  store i32 %12, ptr %7, align 4, !tbaa !3
  switch i32 %11, label %13 [
    i32 1, label %16
    i32 2, label %16
    i32 3, label %19
    i32 4, label %22
    i32 5, label %25
  ]

13:                                               ; preds = %3
  %14 = load i32, ptr %7, align 4
  %15 = atomicrmw sub ptr %10, i32 %14 monotonic, align 4
  store i32 %15, ptr %8, align 4
  br label %28

16:                                               ; preds = %3, %3
  %17 = load i32, ptr %7, align 4
  %18 = atomicrmw sub ptr %10, i32 %17 acquire, align 4
  store i32 %18, ptr %8, align 4
  br label %28

19:                                               ; preds = %3
  %20 = load i32, ptr %7, align 4
  %21 = atomicrmw sub ptr %10, i32 %20 release, align 4
  store i32 %21, ptr %8, align 4
  br label %28

22:                                               ; preds = %3
  %23 = load i32, ptr %7, align 4
  %24 = atomicrmw sub ptr %10, i32 %23 acq_rel, align 4
  store i32 %24, ptr %8, align 4
  br label %28

25:                                               ; preds = %3
  %26 = load i32, ptr %7, align 4
  %27 = atomicrmw sub ptr %10, i32 %26 seq_cst, align 4
  store i32 %27, ptr %8, align 4
  br label %28

28:                                               ; preds = %25, %22, %19, %16, %13
  %29 = load i32, ptr %8, align 4, !tbaa !3
  ret i32 %29
}

; Function Attrs: mustprogress nounwind uwtable
define linkonce_odr hidden void @_ZN4lean4listIjE4cell7inc_refEv(ptr noundef nonnull align 8 dereferenceable(16) %0) #1 comdat align 2 {
  %2 = alloca ptr, align 8
  store ptr %0, ptr %2, align 8, !tbaa !17
  %3 = load ptr, ptr %2, align 8
  %4 = getelementptr inbounds nuw %"class.lean::list<unsigned int>::cell", ptr %3, i32 0, i32 0
  %5 = call noundef i32 @_ZSt25atomic_fetch_add_explicitIjET_PSt6atomicIS0_ENS2_15difference_typeESt12memory_order(ptr noundef %4, i32 noundef 1, i32 noundef 0) #9
  ret void
}

; Function Attrs: mustprogress nounwind uwtable
define linkonce_odr hidden void @_ZNSt13__atomic_baseIjEC2Ej(ptr noundef nonnull align 4 dereferenceable(4) %0, i32 noundef %1) unnamed_addr #1 comdat align 2 {
  %3 = alloca ptr, align 8
  %4 = alloca i32, align 4
  store ptr %0, ptr %3, align 8, !tbaa !23
  store i32 %1, ptr %4, align 4, !tbaa !3
  %5 = load ptr, ptr %3, align 8
  %6 = getelementptr inbounds nuw %"struct.std::__atomic_base", ptr %5, i32 0, i32 0
  %7 = load i32, ptr %4, align 4, !tbaa !3
  store i32 %7, ptr %6, align 4, !tbaa !29
  ret void
}

; Function Attrs: mustprogress nounwind uwtable
define linkonce_odr hidden void @_ZN4lean4listIjE4cellD2Ev(ptr noundef nonnull align 8 dereferenceable(16) %0) unnamed_addr #1 comdat align 2 {
  %2 = alloca ptr, align 8
  store ptr %0, ptr %2, align 8, !tbaa !17
  %3 = load ptr, ptr %2, align 8
  %4 = getelementptr inbounds nuw %"class.lean::list<unsigned int>::cell", ptr %3, i32 0, i32 2
  call void @_ZN4lean4listIjED2Ev(ptr noundef nonnull align 8 dereferenceable(8) %4) #9
  ret void
}

; Function Attrs: inlinehint mustprogress nounwind uwtable
define linkonce_odr noundef i32 @_ZSt25atomic_fetch_sub_explicitIjET_PSt6atomicIS0_ENS2_15difference_typeESt12memory_order(ptr noundef %0, i32 noundef %1, i32 noundef %2) #5 comdat {
  %4 = alloca ptr, align 8
  %5 = alloca i32, align 4
  %6 = alloca i32, align 4
  store ptr %0, ptr %4, align 8, !tbaa !19
  store i32 %1, ptr %5, align 4, !tbaa !3
  store i32 %2, ptr %6, align 4, !tbaa !21
  %7 = load ptr, ptr %4, align 8, !tbaa !19
  %8 = load i32, ptr %5, align 4, !tbaa !3
  %9 = load i32, ptr %6, align 4, !tbaa !21
  %10 = call noundef i32 @_ZNSt13__atomic_baseIjE9fetch_subEjSt12memory_order(ptr noundef nonnull align 4 dereferenceable(4) %7, i32 noundef %8, i32 noundef %9) #9
  ret i32 %10
}

; Function Attrs: mustprogress uwtable
define linkonce_odr hidden void @_ZN4lean4listIjEC2ERKS1_(ptr noundef nonnull align 8 dereferenceable(8) %0, ptr noundef nonnull align 8 dereferenceable(8) %1) unnamed_addr #0 comdat align 2 {
  %3 = alloca ptr, align 8
  %4 = alloca ptr, align 8
  store ptr %0, ptr %3, align 8, !tbaa !9
  store ptr %1, ptr %4, align 8, !tbaa !9
  %5 = load ptr, ptr %3, align 8
  %6 = getelementptr inbounds nuw %"class.lean::list", ptr %5, i32 0, i32 0
  %7 = load ptr, ptr %4, align 8, !tbaa !9
  %8 = getelementptr inbounds nuw %"class.lean::list", ptr %7, i32 0, i32 0
  %9 = load ptr, ptr %8, align 8, !tbaa !12
  store ptr %9, ptr %6, align 8, !tbaa !12
  %10 = getelementptr inbounds nuw %"class.lean::list", ptr %5, i32 0, i32 0
  %11 = load ptr, ptr %10, align 8, !tbaa !12
  %12 = icmp ne ptr %11, null
  br i1 %12, label %13, label %16

13:                                               ; preds = %2
  %14 = getelementptr inbounds nuw %"class.lean::list", ptr %5, i32 0, i32 0
  %15 = load ptr, ptr %14, align 8, !tbaa !12
  call void @_ZN4lean4listIjE4cell7inc_refEv(ptr noundef nonnull align 8 dereferenceable(16) %15)
  br label %16

16:                                               ; preds = %13, %2
  ret void
}

; Function Attrs: mustprogress nounwind uwtable
define linkonce_odr hidden void @_ZNSt6atomicIjEC2Ej(ptr noundef nonnull align 4 dereferenceable(4) %0, i32 noundef %1) unnamed_addr #1 comdat align 2 {
  %3 = alloca ptr, align 8
  %4 = alloca i32, align 4
  store ptr %0, ptr %3, align 8, !tbaa !19
  store i32 %1, ptr %4, align 4, !tbaa !3
  %5 = load ptr, ptr %3, align 8
  %6 = load i32, ptr %4, align 4, !tbaa !3
  call void @_ZNSt13__atomic_baseIjEC2Ej(ptr noundef nonnull align 4 dereferenceable(4) %5, i32 noundef %6) #9
  ret void
}

; Function Attrs: mustprogress nounwind uwtable
define linkonce_odr hidden void @_ZN4lean4listIjE4cell7deallocEv(ptr noundef nonnull align 8 dereferenceable(16) %0) #1 comdat align 2 {
  %2 = alloca ptr, align 8
  store ptr %0, ptr %2, align 8, !tbaa !17
  %3 = load ptr, ptr %2, align 8
  %4 = icmp eq ptr %3, null
  br i1 %4, label %6, label %5

5:                                                ; preds = %1
  call void @_ZN4lean4listIjE4cellD2Ev(ptr noundef nonnull align 8 dereferenceable(16) %3) #9
  call void @_ZdlPvm(ptr noundef %3, i64 noundef 16) #11
  br label %6

6:                                                ; preds = %5, %1
  ret void
}

; Function Attrs: mustprogress nounwind uwtable
define linkonce_odr hidden noundef zeroext i1 @_ZN4lean4listIjE4cell12dec_ref_coreEv(ptr noundef nonnull align 8 dereferenceable(16) %0) #1 comdat align 2 {
  %2 = alloca ptr, align 8
  store ptr %0, ptr %2, align 8, !tbaa !17
  %3 = load ptr, ptr %2, align 8
  %4 = getelementptr inbounds nuw %"class.lean::list<unsigned int>::cell", ptr %3, i32 0, i32 0
  %5 = call noundef i32 @_ZSt25atomic_fetch_sub_explicitIjET_PSt6atomicIS0_ENS2_15difference_typeESt12memory_order(ptr noundef %4, i32 noundef 1, i32 noundef 4) #9
  %6 = icmp eq i32 %5, 1
  ret i1 %6
}

; Function Attrs: mustprogress uwtable
define linkonce_odr hidden void @_ZN4lean4listIjE4cellC2ERKjRKS1_(ptr noundef nonnull align 8 dereferenceable(16) %0, ptr noundef nonnull align 4 dereferenceable(4) %1, ptr noundef nonnull align 8 dereferenceable(8) %2) unnamed_addr #0 comdat align 2 {
  %4 = alloca ptr, align 8
  %5 = alloca ptr, align 8
  %6 = alloca ptr, align 8
  store ptr %0, ptr %4, align 8, !tbaa !17
  store ptr %1, ptr %5, align 8, !tbaa !15
  store ptr %2, ptr %6, align 8, !tbaa !9
  %7 = load ptr, ptr %4, align 8
  %8 = getelementptr inbounds nuw %"class.lean::list<unsigned int>::cell", ptr %7, i32 0, i32 0
  call void @_ZNSt6atomicIjEC2Ej(ptr noundef nonnull align 4 dereferenceable(4) %8, i32 noundef 1) #9
  %9 = getelementptr inbounds nuw %"class.lean::list<unsigned int>::cell", ptr %7, i32 0, i32 1
  %10 = load ptr, ptr %5, align 8, !tbaa !15
  %11 = load i32, ptr %10, align 4, !tbaa !3
  store i32 %11, ptr %9, align 4, !tbaa !25
  %12 = getelementptr inbounds nuw %"class.lean::list<unsigned int>::cell", ptr %7, i32 0, i32 2
  %13 = load ptr, ptr %6, align 8, !tbaa !9
  call void @_ZN4lean4listIjEC2ERKS1_(ptr noundef nonnull align 8 dereferenceable(8) %12, ptr noundef nonnull align 8 dereferenceable(8) %13)
  ret void
}

; Function Attrs: mustprogress nounwind uwtable
define linkonce_odr hidden void @_ZN4lean4listIjE4cell7dec_refEv(ptr noundef nonnull align 8 dereferenceable(16) %0) #1 comdat align 2 {
  %2 = alloca ptr, align 8
  store ptr %0, ptr %2, align 8, !tbaa !17
  %3 = load ptr, ptr %2, align 8
  %4 = call noundef zeroext i1 @_ZN4lean4listIjE4cell12dec_ref_coreEv(ptr noundef nonnull align 8 dereferenceable(16) %3)
  br i1 %4, label %5, label %6

5:                                                ; preds = %1
  call void @_ZN4lean4listIjE4cell7deallocEv(ptr noundef nonnull align 8 dereferenceable(16) %3)
  br label %6

6:                                                ; preds = %5, %1
  ret void
}

; Function Attrs: mustprogress uwtable
define linkonce_odr hidden void @_ZN4lean4listIjEC2ERKjRKS1_(ptr noundef nonnull align 8 dereferenceable(8) %0, ptr noundef nonnull align 4 dereferenceable(4) %1, ptr noundef nonnull align 8 dereferenceable(8) %2) unnamed_addr #0 comdat align 2 personality ptr @__gxx_personality_v0 {
  %4 = alloca ptr, align 8
  %5 = alloca ptr, align 8
  %6 = alloca ptr, align 8
  %7 = alloca ptr, align 8
  %8 = alloca i32, align 4
  store ptr %0, ptr %4, align 8, !tbaa !9
  store ptr %1, ptr %5, align 8, !tbaa !15
  store ptr %2, ptr %6, align 8, !tbaa !9
  %9 = load ptr, ptr %4, align 8
  %10 = getelementptr inbounds nuw %"class.lean::list", ptr %9, i32 0, i32 0
  %11 = call noalias noundef nonnull ptr @_Znwm(i64 noundef 16) #12
  %12 = load ptr, ptr %5, align 8, !tbaa !15
  %13 = load ptr, ptr %6, align 8, !tbaa !9
  invoke void @_ZN4lean4listIjE4cellC2ERKjRKS1_(ptr noundef nonnull align 8 dereferenceable(16) %11, ptr noundef nonnull align 4 dereferenceable(4) %12, ptr noundef nonnull align 8 dereferenceable(8) %13)
          to label %14 unwind label %15

14:                                               ; preds = %3
  store ptr %11, ptr %10, align 8, !tbaa !12
  ret void

15:                                               ; preds = %3
  %16 = landingpad { ptr, i32 }
          cleanup
  %17 = extractvalue { ptr, i32 } %16, 0
  store ptr %17, ptr %7, align 8
  %18 = extractvalue { ptr, i32 } %16, 1
  store i32 %18, ptr %8, align 4
  call void @_ZdlPvm(ptr noundef %11, i64 noundef 16) #11
  br label %19

19:                                               ; preds = %15
  %20 = load ptr, ptr %7, align 8
  %21 = load i32, ptr %8, align 4
  %22 = insertvalue { ptr, i32 } poison, ptr %20, 0
  %23 = insertvalue { ptr, i32 } %22, i32 %21, 1
  resume { ptr, i32 } %23
}

; Function Attrs: mustprogress uwtable
define linkonce_odr hidden noundef nonnull align 8 dereferenceable(8) ptr @_ZN4lean4listIjEaSEOS1_(ptr noundef nonnull align 8 dereferenceable(8) %0, ptr noundef nonnull align 8 dereferenceable(8) %1) #0 comdat align 2 {
  %3 = alloca ptr, align 8
  %4 = alloca ptr, align 8
  store ptr %0, ptr %3, align 8, !tbaa !9
  store ptr %1, ptr %4, align 8, !tbaa !9
  %5 = load ptr, ptr %3, align 8
  %6 = getelementptr inbounds nuw %"class.lean::list", ptr %5, i32 0, i32 0
  %7 = load ptr, ptr %6, align 8, !tbaa !12
  %8 = icmp ne ptr %7, null
  br i1 %8, label %9, label %12

9:                                                ; preds = %2
  %10 = getelementptr inbounds nuw %"class.lean::list", ptr %5, i32 0, i32 0
  %11 = load ptr, ptr %10, align 8, !tbaa !12
  call void @_ZN4lean4listIjE4cell7dec_refEv(ptr noundef nonnull align 8 dereferenceable(16) %11)
  br label %12

12:                                               ; preds = %9, %2
  %13 = load ptr, ptr %4, align 8, !tbaa !9
  %14 = getelementptr inbounds nuw %"class.lean::list", ptr %13, i32 0, i32 0
  %15 = load ptr, ptr %14, align 8, !tbaa !12
  %16 = getelementptr inbounds nuw %"class.lean::list", ptr %5, i32 0, i32 0
  store ptr %15, ptr %16, align 8, !tbaa !12
  %17 = load ptr, ptr %4, align 8, !tbaa !9
  %18 = getelementptr inbounds nuw %"class.lean::list", ptr %17, i32 0, i32 0
  store ptr null, ptr %18, align 8, !tbaa !12
  ret ptr %5
}

; Function Attrs: inlinehint mustprogress uwtable
define linkonce_odr hidden void @_ZN4lean4consIjEENS_4listIT_EERKS2_RKS3_(ptr dead_on_unwind noalias writable sret(%"class.lean::list") align 8 %0, ptr noundef nonnull align 4 dereferenceable(4) %1, ptr noundef nonnull align 8 dereferenceable(8) %2) #3 comdat {
  %4 = alloca ptr, align 8
  %5 = alloca ptr, align 8
  %6 = alloca ptr, align 8
  store ptr %0, ptr %4, align 8
  store ptr %1, ptr %5, align 8, !tbaa !15
  store ptr %2, ptr %6, align 8, !tbaa !9
  %7 = load ptr, ptr %5, align 8, !tbaa !15
  %8 = load ptr, ptr %6, align 8, !tbaa !9
  call void @_ZN4lean4listIjEC2ERKjRKS1_(ptr noundef nonnull align 8 dereferenceable(8) %0, ptr noundef nonnull align 4 dereferenceable(4) %7, ptr noundef nonnull align 8 dereferenceable(8) %8)
  ret void
}

; Function Attrs: mustprogress nounwind uwtable
define linkonce_odr hidden void @_ZN4lean4listIjEC2Ev(ptr noundef nonnull align 8 dereferenceable(8) %0) unnamed_addr #1 comdat align 2 {
  %2 = alloca ptr, align 8
  store ptr %0, ptr %2, align 8, !tbaa !9
  %3 = load ptr, ptr %2, align 8
  %4 = getelementptr inbounds nuw %"class.lean::list", ptr %3, i32 0, i32 0
  store ptr null, ptr %4, align 8, !tbaa !12
  ret void
}

; Function Attrs: mustprogress uwtable
define hidden void @_ZN4lean13mk_list_rangeEjj(ptr dead_on_unwind noalias writable sret(%"class.lean::list") align 8 %0, i32 noundef %1, i32 noundef %2) #0 personality ptr @__gxx_personality_v0 {
  %4 = alloca ptr, align 8
  %5 = alloca i32, align 4
  %6 = alloca i32, align 4
  %7 = alloca i1, align 1
  %8 = alloca i32, align 4
  %9 = alloca %"class.lean::list", align 8
  %10 = alloca ptr, align 8
  %11 = alloca i32, align 4
  store ptr %0, ptr %4, align 8
  store i32 %1, ptr %5, align 4, !tbaa !3
  store i32 %2, ptr %6, align 4, !tbaa !3
  store i1 false, ptr %7, align 1
  call void @_ZN4lean4listIjEC2Ev(ptr noundef nonnull align 8 dereferenceable(8) %0)
  call void @llvm.lifetime.start.p0(i64 4, ptr %8) #9
  %12 = load i32, ptr %6, align 4, !tbaa !3
  store i32 %12, ptr %8, align 4, !tbaa !3
  br label %13

13:                                               ; preds = %22, %3
  %14 = load i32, ptr %8, align 4, !tbaa !3
  %15 = load i32, ptr %5, align 4, !tbaa !3
  %16 = icmp ugt i32 %14, %15
  br i1 %16, label %17, label %32

17:                                               ; preds = %13
  %18 = load i32, ptr %8, align 4, !tbaa !3
  %19 = add i32 %18, -1
  store i32 %19, ptr %8, align 4, !tbaa !3
  call void @llvm.lifetime.start.p0(i64 8, ptr %9) #9
  invoke void @_ZN4lean4consIjEENS_4listIT_EERKS2_RKS3_(ptr dead_on_unwind writable sret(%"class.lean::list") align 8 %9, ptr noundef nonnull align 4 dereferenceable(4) %8, ptr noundef nonnull align 8 dereferenceable(8) %0)
          to label %20 unwind label %23

20:                                               ; preds = %17
  %21 = invoke noundef nonnull align 8 dereferenceable(8) ptr @_ZN4lean4listIjEaSEOS1_(ptr noundef nonnull align 8 dereferenceable(8) %0, ptr noundef nonnull align 8 dereferenceable(8) %9)
          to label %22 unwind label %27

22:                                               ; preds = %20
  call void @_ZN4lean4listIjED2Ev(ptr noundef nonnull align 8 dereferenceable(8) %9) #9
  call void @llvm.lifetime.end.p0(i64 8, ptr %9) #9
  br label %13, !llvm.loop !7

23:                                               ; preds = %17
  %24 = landingpad { ptr, i32 }
          cleanup
  %25 = extractvalue { ptr, i32 } %24, 0
  store ptr %25, ptr %10, align 8
  %26 = extractvalue { ptr, i32 } %24, 1
  store i32 %26, ptr %11, align 4
  br label %31

27:                                               ; preds = %20
  %28 = landingpad { ptr, i32 }
          cleanup
  %29 = extractvalue { ptr, i32 } %28, 0
  store ptr %29, ptr %10, align 8
  %30 = extractvalue { ptr, i32 } %28, 1
  store i32 %30, ptr %11, align 4
  call void @_ZN4lean4listIjED2Ev(ptr noundef nonnull align 8 dereferenceable(8) %9) #9
  br label %31

31:                                               ; preds = %27, %23
  call void @llvm.lifetime.end.p0(i64 8, ptr %9) #9
  call void @llvm.lifetime.end.p0(i64 4, ptr %8) #9
  call void @_ZN4lean4listIjED2Ev(ptr noundef nonnull align 8 dereferenceable(8) %0) #9
  br label %36

32:                                               ; preds = %13
  store i1 true, ptr %7, align 1
  call void @llvm.lifetime.end.p0(i64 4, ptr %8) #9
  %33 = load i1, ptr %7, align 1
  br i1 %33, label %35, label %34

34:                                               ; preds = %32
  call void @_ZN4lean4listIjED2Ev(ptr noundef nonnull align 8 dereferenceable(8) %0) #9
  br label %35

35:                                               ; preds = %34, %32
  ret void

36:                                               ; preds = %31
  %37 = load ptr, ptr %10, align 8
  %38 = load i32, ptr %11, align 4
  %39 = insertvalue { ptr, i32 } poison, ptr %37, 0
  %40 = insertvalue { ptr, i32 } %39, i32 %38, 1
  resume { ptr, i32 } %40
}