; Function Attrs: mustprogress uwtable
define hidden void @_ZN4lean13mk_list_rangeEjj(ptr dead_on_unwind noalias writable sret(%"class.lean::list") align 8 initializes((0, 8)) %0, i32 noundef %1, i32 noundef %2) local_unnamed_addr #0 personality ptr @__gxx_personality_v0 {
  %4 = alloca %"class.lean::list", align 8
  store ptr null, ptr %0, align 8, !tbaa !3
  %5 = icmp ugt i32 %2, %1
  br i1 %5, label %.lr.ph, label %._crit_edge

.lr.ph:                                           ; preds = %3, %16
  %.pr = phi ptr [ %17, %16 ], [ null, %3 ]
  %.09 = phi i32 [ %6, %16 ], [ %2, %3 ]
  %6 = add i32 %.09, -1
  call void @llvm.lifetime.start.p0(i64 8, ptr nonnull %4) #6
  call void @llvm.experimental.noalias.scope.decl(metadata !9)
  %7 = invoke noalias noundef nonnull dereferenceable(16) ptr @_Znwm(i64 noundef 16) #7
          to label %.noexc unwind label %19

.noexc:                                           ; preds = %.lr.ph
  store i32 1, ptr %7, align 4, !tbaa !12, !noalias !9
  %8 = getelementptr inbounds nuw i8, ptr %7, i64 4
  store i32 %6, ptr %8, align 4, !tbaa !15, !noalias !9
  %9 = getelementptr inbounds nuw i8, ptr %7, i64 8
  store ptr %.pr, ptr %9, align 8, !tbaa !3, !noalias !9
  %.not.i.i.i.i = icmp eq ptr %.pr, null
  br i1 %.not.i.i.i.i, label %.thread, label %10

.thread:                                          ; preds = %.noexc
  store ptr %7, ptr %4, align 8, !tbaa !3, !alias.scope !9
  br label %16

10:                                               ; preds = %.noexc
  %11 = atomicrmw add ptr %.pr, i32 1 monotonic, align 4, !noalias !9
  store ptr %7, ptr %4, align 8, !tbaa !3, !alias.scope !9
  %12 = atomicrmw sub ptr %.pr, i32 1 acq_rel, align 4
  %13 = icmp eq i32 %12, 1
  br i1 %13, label %14, label %16

14:                                               ; preds = %10
  %15 = getelementptr inbounds nuw i8, ptr %.pr, i64 8
  call void @_ZN4lean4listIjED2Ev(ptr noundef nonnull align 8 dereferenceable(8) %15) #6
  call void @_ZdlPvm(ptr noundef nonnull align 8 dereferenceable(16) %.pr, i64 noundef 16) #8
  br label %16

16:                                               ; preds = %14, %10, %.thread
  %17 = load ptr, ptr %4, align 8, !tbaa !3
  store ptr %17, ptr %0, align 8, !tbaa !3
  store ptr null, ptr %4, align 8, !tbaa !3
  call void @_ZN4lean4listIjED2Ev(ptr noundef nonnull align 8 dereferenceable(8) %4) #6
  call void @llvm.lifetime.end.p0(i64 8, ptr nonnull %4) #6
  %18 = icmp ugt i32 %6, %1
  br i1 %18, label %.lr.ph, label %._crit_edge, !llvm.loop !18

19:                                               ; preds = %.lr.ph
  %20 = landingpad { ptr, i32 }
          cleanup
  call void @llvm.lifetime.end.p0(i64 8, ptr nonnull %4) #6
  call void @_ZN4lean4listIjED2Ev(ptr noundef nonnull align 8 dereferenceable(8) %0) #6
  resume { ptr, i32 } %20

._crit_edge:                                      ; preds = %16, %3
  ret void
}